; Function Attrs: nounwind uwtable
define hidden void @png_set_cHRM(ptr noalias noundef %0, ptr noalias noundef %1, double noundef %2, double noundef %3, double noundef %4, double noundef %5, double noundef %6, double noundef %7, double noundef %8, double noundef %9) local_unnamed_addr #2 {
  %11 = alloca %struct.png_xy, align 4
  %12 = tail call i32 @png_fixed(ptr noundef %0, double noundef %2, ptr noundef nonnull @.str) #12
  %13 = tail call i32 @png_fixed(ptr noundef %0, double noundef %3, ptr noundef nonnull @.str.1) #12
  %14 = tail call i32 @png_fixed(ptr noundef %0, double noundef %4, ptr noundef nonnull @.str.2) #12
  %15 = tail call i32 @png_fixed(ptr noundef %0, double noundef %5, ptr noundef nonnull @.str.3) #12
  %16 = tail call i32 @png_fixed(ptr noundef %0, double noundef %6, ptr noundef nonnull @.str.4) #12
  %17 = tail call i32 @png_fixed(ptr noundef %0, double noundef %7, ptr noundef nonnull @.str.5) #12
  %18 = tail call i32 @png_fixed(ptr noundef %0, double noundef %8, ptr noundef nonnull @.str.6) #12
  %19 = tail call i32 @png_fixed(ptr noundef %0, double noundef %9, ptr noundef nonnull @.str.7) #12
  tail call void @llvm.experimental.noalias.scope.decl(metadata !6)
  call void @llvm.lifetime.start.p0(i64 32, ptr nonnull %11)
  %20 = icmp eq ptr %0, null
  %21 = icmp eq ptr %1, null
  %or.cond.i = or i1 %20, %21
  br i1 %or.cond.i, label %png_set_cHRM_fixed.exit, label %22

22:                                               ; preds = %10
  store i32 %14, ptr %11, align 4, !noalias !9
  %23 = getelementptr inbounds i8, ptr %11, i64 4
  store i32 %15, ptr %23, align 4, !noalias !9
  %24 = getelementptr inbounds i8, ptr %11, i64 8
  store i32 %16, ptr %24, align 4, !noalias !9
  %25 = getelementptr inbounds i8, ptr %11, i64 12
  store i32 %17, ptr %25, align 4, !noalias !9
  %26 = getelementptr inbounds i8, ptr %11, i64 16
  store i32 %18, ptr %26, align 4, !noalias !9
  %27 = getelementptr inbounds i8, ptr %11, i64 20
  store i32 %19, ptr %27, align 4, !noalias !9
  %28 = getelementptr inbounds i8, ptr %11, i64 24
  store i32 %12, ptr %28, align 4, !noalias !9
  %29 = getelementptr inbounds i8, ptr %11, i64 28
  store i32 %13, ptr %29, align 4, !noalias !9
  %30 = getelementptr inbounds i8, ptr %1, i64 52
  %31 = call i32 @png_colorspace_set_chromaticities(ptr noundef nonnull %0, ptr noundef nonnull %30, ptr noundef nonnull %11, i32 noundef 2) #12
  %.not.i = icmp eq i32 %31, 0
  br i1 %.not.i, label %36, label %32

32:                                               ; preds = %22
  %33 = getelementptr inbounds i8, ptr %1, i64 126
  %34 = load i16, ptr %33, align 2, !alias.scope !6, !noalias !11
  %35 = or i16 %34, 16
  store i16 %35, ptr %33, align 2, !alias.scope !6, !noalias !11
  br label %36

36:                                               ; preds = %32, %22
  call void @png_colorspace_sync_info(ptr noundef nonnull %0, ptr noundef nonnull %1) #12
  br label %png_set_cHRM_fixed.exit

png_set_cHRM_fixed.exit:                          ; preds = %10, %36
  call void @llvm.lifetime.end.p0(i64 32, ptr nonnull %11)
  ret void
}